; Function Attrs: mustprogress nofree norecurse nosync nounwind willreturn memory(read, inaccessiblemem: none) uwtable
define hidden ptr @SSL_get_certificate(ptr noundef readonly captures(none) %0) local_unnamed_addr #10 {
  %2 = getelementptr inbounds nuw i8, ptr %0, i64 136
  %3 = load ptr, ptr %2, align 8, !tbaa !85
  %.not = icmp eq ptr %3, null
  br i1 %.not, label %6, label %4

4:                                                ; preds = %1
  %5 = load ptr, ptr %3, align 8, !tbaa !167
  br label %6

6:                                                ; preds = %1, %4
  %.0 = phi ptr [ %5, %4 ], [ null, %1 ]
  ret ptr %.0
}